
string:     file format elf32-littlearm


Disassembly of section .text:

00008000 <_start>:
    8000:	e3a0d902 	mov	sp, #32768	; 0x8000
    8004:	eb000052 	bl	8154 <notmain>

00008008 <hang>:
    8008:	eafffffe 	b	8008 <hang>

0000800c <strlen>:
    800c:	e52db004 	push	{fp}		; (str fp, [sp, #-4]!)
    8010:	e28db000 	add	fp, sp, #0
    8014:	e24dd014 	sub	sp, sp, #20
    8018:	e50b0010 	str	r0, [fp, #-16]
    801c:	e51b3010 	ldr	r3, [fp, #-16]
    8020:	e50b3008 	str	r3, [fp, #-8]
    8024:	ea000002 	b	8034 <strlen+0x28>
    8028:	e51b3008 	ldr	r3, [fp, #-8]
    802c:	e2833001 	add	r3, r3, #1
    8030:	e50b3008 	str	r3, [fp, #-8]
    8034:	e51b3008 	ldr	r3, [fp, #-8]
    8038:	e5d33000 	ldrb	r3, [r3]
    803c:	e3530000 	cmp	r3, #0
    8040:	1afffff8 	bne	8028 <strlen+0x1c>
    8044:	e51b2008 	ldr	r2, [fp, #-8]
    8048:	e51b3010 	ldr	r3, [fp, #-16]
    804c:	e0633002 	rsb	r3, r3, r2
    8050:	e1a00003 	mov	r0, r3
    8054:	e24bd000 	sub	sp, fp, #0
    8058:	e49db004 	pop	{fp}		; (ldr fp, [sp], #4)
    805c:	e12fff1e 	bx	lr

00008060 <strcpy>:
    8060:	e52db004 	push	{fp}		; (str fp, [sp, #-4]!)
    8064:	e28db000 	add	fp, sp, #0
    8068:	e24dd014 	sub	sp, sp, #20
    806c:	e50b0010 	str	r0, [fp, #-16]
    8070:	e50b1014 	str	r1, [fp, #-20]
    8074:	e51b3010 	ldr	r3, [fp, #-16]
    8078:	e50b3008 	str	r3, [fp, #-8]
    807c:	e1a00000 	nop			; (mov r0, r0)
    8080:	e51b3008 	ldr	r3, [fp, #-8]
    8084:	e2832001 	add	r2, r3, #1
    8088:	e50b2008 	str	r2, [fp, #-8]
    808c:	e51b2014 	ldr	r2, [fp, #-20]
    8090:	e2821001 	add	r1, r2, #1
    8094:	e50b1014 	str	r1, [fp, #-20]
    8098:	e5d22000 	ldrb	r2, [r2]
    809c:	e5c32000 	strb	r2, [r3]
    80a0:	e5d33000 	ldrb	r3, [r3]
    80a4:	e3530000 	cmp	r3, #0
    80a8:	1afffff4 	bne	8080 <strcpy+0x20>
    80ac:	e51b3010 	ldr	r3, [fp, #-16]
    80b0:	e1a00003 	mov	r0, r3
    80b4:	e24bd000 	sub	sp, fp, #0
    80b8:	e49db004 	pop	{fp}		; (ldr fp, [sp], #4)
    80bc:	e12fff1e 	bx	lr

000080c0 <chop_to_front>:
    80c0:	e92d4800 	push	{fp, lr}
    80c4:	e28db004 	add	fp, sp, #4
    80c8:	e24dd008 	sub	sp, sp, #8
    80cc:	e50b0008 	str	r0, [fp, #-8]
    80d0:	e51b0008 	ldr	r0, [fp, #-8]
    80d4:	ebffffcc 	bl	800c <strlen>
    80d8:	e1a03000 	mov	r3, r0
    80dc:	e1a02fa3 	lsr	r2, r3, #31
    80e0:	e0823003 	add	r3, r2, r3
    80e4:	e1a030c3 	asr	r3, r3, #1
    80e8:	e51b2008 	ldr	r2, [fp, #-8]
    80ec:	e0823003 	add	r3, r2, r3
    80f0:	e3a02000 	mov	r2, #0
    80f4:	e5c32000 	strb	r2, [r3]
    80f8:	e24bd004 	sub	sp, fp, #4
    80fc:	e8bd4800 	pop	{fp, lr}
    8100:	e12fff1e 	bx	lr

00008104 <chop_to_back>:
    8104:	e92d4810 	push	{r4, fp, lr}
    8108:	e28db008 	add	fp, sp, #8
    810c:	e24dd00c 	sub	sp, sp, #12
    8110:	e50b0010 	str	r0, [fp, #-16]
    8114:	e51b3010 	ldr	r3, [fp, #-16]
    8118:	e5934000 	ldr	r4, [r3]
    811c:	e51b3010 	ldr	r3, [fp, #-16]
    8120:	e5933000 	ldr	r3, [r3]
    8124:	e1a00003 	mov	r0, r3
    8128:	ebffffb7 	bl	800c <strlen>
    812c:	e1a03000 	mov	r3, r0
    8130:	e1a02fa3 	lsr	r2, r3, #31
    8134:	e0823003 	add	r3, r2, r3
    8138:	e1a030c3 	asr	r3, r3, #1
    813c:	e0842003 	add	r2, r4, r3
    8140:	e51b3010 	ldr	r3, [fp, #-16]
    8144:	e5832000 	str	r2, [r3]
    8148:	e24bd008 	sub	sp, fp, #8
    814c:	e8bd4810 	pop	{r4, fp, lr}
    8150:	e12fff1e 	bx	lr

00008154 <notmain>:
    8154:	e92d4800 	push	{fp, lr}
    8158:	e28db004 	add	fp, sp, #4
    815c:	e24dd068 	sub	sp, sp, #104	; 0x68
    8160:	e24b3068 	sub	r3, fp, #104	; 0x68
    8164:	e1a00003 	mov	r0, r3
    8168:	e59f1044 	ldr	r1, [pc, #68]	; 81b4 <notmain+0x60>
    816c:	ebffffbb 	bl	8060 <strcpy>
    8170:	e24b3068 	sub	r3, fp, #104	; 0x68
    8174:	e1a00003 	mov	r0, r3
    8178:	ebffffd0 	bl	80c0 <chop_to_front>
    817c:	e24b3068 	sub	r3, fp, #104	; 0x68
    8180:	e1a00003 	mov	r0, r3
    8184:	e59f1028 	ldr	r1, [pc, #40]	; 81b4 <notmain+0x60>
    8188:	ebffffb4 	bl	8060 <strcpy>
    818c:	e24b3068 	sub	r3, fp, #104	; 0x68
    8190:	e50b306c 	str	r3, [fp, #-108]	; 0x6c
    8194:	e24b306c 	sub	r3, fp, #108	; 0x6c
    8198:	e1a00003 	mov	r0, r3
    819c:	ebffffd8 	bl	8104 <chop_to_back>
    81a0:	e55b3068 	ldrb	r3, [fp, #-104]	; 0x68
    81a4:	e1a00003 	mov	r0, r3
    81a8:	e24bd004 	sub	sp, fp, #4
    81ac:	e8bd4800 	pop	{fp, lr}
    81b0:	e12fff1e 	bx	lr
    81b4:	000081b8 	.word	0x000081b8
